; Function Attrs: nofree norecurse nosync nounwind sspstrong memory(readwrite, inaccessiblemem: none) uwtable
define internal noundef i32 @i_renumber_name(i64 %0, i64 noundef %1, i64 noundef %2) #11 {
  %4 = inttoptr i64 %1 to ptr
  %5 = inttoptr i64 %2 to ptr
  %6 = getelementptr inbounds nuw i8, ptr %4, i64 16
  %7 = load i32, ptr %6, align 8, !tbaa !41
  %8 = icmp sgt i32 %7, 1
  br i1 %8, label %.lr.ph, label %20

.lr.ph:                                           ; preds = %3
  %9 = getelementptr inbounds nuw i8, ptr %4, i64 32
  %10 = load ptr, ptr %9, align 8, !tbaa !44
  br label %11

11:                                               ; preds = %.lr.ph, %11
  %indvars.iv = phi i64 [ 0, %.lr.ph ], [ %indvars.iv.next, %11 ]
  %12 = getelementptr i32, ptr %10, i64 %indvars.iv
  %13 = load i32, ptr %12, align 4, !tbaa !11
  %14 = sext i32 %13 to i64
  %15 = getelementptr %struct.GroupNumRemap, ptr %5, i64 %14
  %16 = load i32, ptr %15, align 4, !tbaa !48
  store i32 %16, ptr %12, align 4, !tbaa !11
  %indvars.iv.next = add nuw nsw i64 %indvars.iv, 1
  %17 = load i32, ptr %6, align 8, !tbaa !41
  %18 = sext i32 %17 to i64
  %19 = icmp slt i64 %indvars.iv.next, %18
  br i1 %19, label %11, label %.loopexit, !llvm.loop !50

20:                                               ; preds = %3
  %21 = icmp eq i32 %7, 1
  br i1 %21, label %22, label %.loopexit

22:                                               ; preds = %20
  %23 = getelementptr inbounds nuw i8, ptr %4, i64 24
  %24 = load i32, ptr %23, align 8, !tbaa !43
  %25 = sext i32 %24 to i64
  %26 = getelementptr %struct.GroupNumRemap, ptr %5, i64 %25
  %27 = load i32, ptr %26, align 4, !tbaa !48
  store i32 %27, ptr %23, align 8, !tbaa !43
  br label %.loopexit

.loopexit:                                        ; preds = %11, %20, %22
  ret i32 0
}